; Function Attrs: mustprogress uwtable
define hidden noundef ptr @_ZN10duckdb_re29Prefilter9OrStringsEPSt3setINSt7__cxx1112basic_stringIcSt11char_traitsIcESaIcEEENS0_13LengthThenLexESaIS7_EE(ptr noundef %0) local_unnamed_addr #0 align 2 personality ptr @__gxx_personality_v0 {
  %2 = tail call noalias noundef nonnull dereferenceable(56) ptr @_Znwm(i64 noundef 56) #20
  %3 = getelementptr inbounds nuw i8, ptr %2, i64 16
  %4 = getelementptr inbounds nuw i8, ptr %2, i64 32
  store ptr %4, ptr %3, align 8, !tbaa !3
  %5 = getelementptr inbounds nuw i8, ptr %2, i64 24
  store i64 0, ptr %5, align 8, !tbaa !9
  store i8 0, ptr %4, align 1, !tbaa !12
  store i32 1, ptr %2, align 8, !tbaa !13
  %6 = getelementptr inbounds nuw i8, ptr %2, i64 8
  store ptr null, ptr %6, align 8, !tbaa !18
  tail call void @_ZN10duckdb_re29Prefilter17SimplifyStringSetEPSt3setINSt7__cxx1112basic_stringIcSt11char_traitsIcESaIcEEENS0_13LengthThenLexESaIS7_EE(ptr noundef %0)
  %7 = getelementptr inbounds nuw i8, ptr %0, i64 24
  %8 = load ptr, ptr %7, align 8, !tbaa !31
  %9 = getelementptr inbounds nuw i8, ptr %0, i64 8
  %.not9 = icmp eq ptr %8, %9
  br i1 %.not9, label %._crit_edge, label %.lr.ph

._crit_edge:                                      ; preds = %.lr.ph, %1
  %.0.lcssa = phi ptr [ %2, %1 ], [ %16, %.lr.ph ]
  ret ptr %.0.lcssa

.lr.ph:                                           ; preds = %1, %.lr.ph
  %.011 = phi ptr [ %16, %.lr.ph ], [ %2, %1 ]
  %.sroa.06.010 = phi ptr [ %17, %.lr.ph ], [ %8, %1 ]
  %10 = getelementptr inbounds nuw i8, ptr %.sroa.06.010, i64 32
  %11 = tail call noalias noundef nonnull dereferenceable(56) ptr @_Znwm(i64 noundef 56) #20
  %12 = getelementptr inbounds nuw i8, ptr %11, i64 16
  %13 = getelementptr inbounds nuw i8, ptr %11, i64 32
  store ptr %13, ptr %12, align 8, !tbaa !3
  %14 = getelementptr inbounds nuw i8, ptr %11, i64 24
  store i64 0, ptr %14, align 8, !tbaa !9
  store i8 0, ptr %13, align 1, !tbaa !12
  store i32 2, ptr %11, align 8, !tbaa !13
  %15 = getelementptr inbounds nuw i8, ptr %11, i64 8
  store ptr null, ptr %15, align 8, !tbaa !18
  tail call void @_ZNSt7__cxx1112basic_stringIcSt11char_traitsIcESaIcEE9_M_assignERKS4_(ptr noundef nonnull align 8 dereferenceable(32) %12, ptr noundef nonnull align 8 dereferenceable(32) %10)
  %16 = tail call noundef ptr @_ZN10duckdb_re29Prefilter5AndOrENS0_2OpEPS0_S2_(i32 noundef 4, ptr noundef %.011, ptr noundef nonnull %11)
  %17 = tail call noundef ptr @_ZSt18_Rb_tree_incrementPKSt18_Rb_tree_node_base(ptr noundef %.sroa.06.010) #24
  %.not = icmp eq ptr %17, %9
  br i1 %.not, label %._crit_edge, label %.lr.ph, !llvm.loop !39
}